; Function Attrs: nofree nounwind memory(readwrite, argmem: read) uwtable
define noalias noundef ptr @Saig_ManCreateMan(ptr noundef readonly captures(none) %0) local_unnamed_addr #0 {
  %2 = getelementptr i8, ptr %0, i64 32
  %.val32 = load ptr, ptr %2, align 8, !tbaa !3
  %3 = getelementptr i8, ptr %.val32, i64 4
  %.val32.val = load i32, ptr %3, align 4, !tbaa !21
  %4 = add nsw i32 %.val32.val, 1
  %5 = sext i32 %4 to i64
  %6 = tail call noalias ptr @calloc(i64 noundef %5, i64 noundef 16) #18
  %7 = icmp sgt i32 %.val32.val, 0
  br i1 %7, label %.lr.ph, label %..critedge_crit_edge

..critedge_crit_edge:                             ; preds = %1
  %.pre50 = sext i32 %.val32.val to i64
  br label %.critedge

.lr.ph:                                           ; preds = %1
  %8 = getelementptr i8, ptr %.val32, i64 8
  %.val34 = load ptr, ptr %8, align 8, !tbaa !23
  %9 = getelementptr i8, ptr %0, i64 108
  %10 = getelementptr inbounds nuw i8, ptr %0, i64 24
  %11 = getelementptr i8, ptr %0, i64 112
  %wide.trip.count = zext nneg i32 %.val32.val to i64
  br label %12

12:                                               ; preds = %.lr.ph, %Saig_ObjIsLo.exit.thread
  %indvars.iv = phi i64 [ 0, %.lr.ph ], [ %indvars.iv.next, %Saig_ObjIsLo.exit.thread ]
  %13 = getelementptr inbounds nuw ptr, ptr %.val34, i64 %indvars.iv
  %14 = load ptr, ptr %13, align 8, !tbaa !24
  %15 = icmp eq ptr %14, null
  br i1 %15, label %Saig_ObjIsLo.exit.thread, label %16

16:                                               ; preds = %12
  %17 = getelementptr inbounds nuw %struct.Saig_SimObj_t_, ptr %6, i64 %indvars.iv
  %18 = getelementptr inbounds nuw i8, ptr %14, i64 24
  %19 = load i64, ptr %18, align 8
  %20 = trunc i64 %19 to i32
  %21 = and i32 %20, 7
  %22 = getelementptr inbounds nuw i8, ptr %17, i64 8
  %23 = load i32, ptr %22, align 4
  %24 = and i32 %23, -256
  %25 = or disjoint i32 %24, %21
  store i32 %25, ptr %22, align 4
  %26 = and i64 %19, 7
  %27 = icmp eq i64 %26, 2
  %28 = icmp eq i64 %indvars.iv, 0
  %or.cond = or i1 %28, %27
  br i1 %or.cond, label %29, label %41

29:                                               ; preds = %16
  br i1 %27, label %Saig_ObjIsLo.exit, label %Saig_ObjIsLo.exit.thread

Saig_ObjIsLo.exit:                                ; preds = %29
  %.val3.i = load i32, ptr %14, align 8, !tbaa !25
  %.val4.i = load i32, ptr %9, align 4, !tbaa !26
  %.not46 = icmp slt i32 %.val3.i, %.val4.i
  br i1 %.not46, label %Saig_ObjIsLo.exit.thread, label %30

30:                                               ; preds = %Saig_ObjIsLo.exit
  %31 = load ptr, ptr %10, align 8, !tbaa !27
  %.val6.i = load i32, ptr %11, align 8, !tbaa !28
  %32 = add nsw i32 %.val6.i, %.val3.i
  %33 = sub i32 %32, %.val4.i
  %34 = getelementptr i8, ptr %31, i64 8
  %.val.i42 = load ptr, ptr %34, align 8, !tbaa !23
  %35 = sext i32 %33 to i64
  %36 = getelementptr inbounds ptr, ptr %.val.i42, i64 %35
  %37 = load ptr, ptr %36, align 8, !tbaa !24
  %38 = getelementptr inbounds nuw i8, ptr %37, i64 36
  %39 = load i32, ptr %38, align 4, !tbaa !29
  %40 = shl i32 %39, 1
  store i32 %40, ptr %17, align 4, !tbaa !30
  br label %Saig_ObjIsLo.exit.thread.sink.split

41:                                               ; preds = %16
  %42 = getelementptr i8, ptr %14, i64 8
  %.val37 = load ptr, ptr %42, align 8, !tbaa !32
  %.not.i43 = icmp eq ptr %.val37, null
  %.pre51 = ptrtoint ptr %.val37 to i64
  br i1 %.not.i43, label %Aig_ObjFaninId0.exit, label %43

43:                                               ; preds = %41
  %44 = and i64 %.pre51, -2
  %45 = inttoptr i64 %44 to ptr
  %46 = getelementptr inbounds nuw i8, ptr %45, i64 36
  %47 = load i32, ptr %46, align 4, !tbaa !29
  %48 = shl i32 %47, 1
  br label %Aig_ObjFaninId0.exit

Aig_ObjFaninId0.exit:                             ; preds = %41, %43
  %49 = phi i32 [ %48, %43 ], [ -2, %41 ]
  %50 = trunc i64 %.pre51 to i32
  %51 = and i32 %50, 1
  %52 = or disjoint i32 %49, %51
  store i32 %52, ptr %17, align 4, !tbaa !30
  %.not = icmp eq i64 %26, 3
  br i1 %.not, label %Saig_ObjIsLo.exit.thread, label %53

53:                                               ; preds = %Aig_ObjFaninId0.exit
  %54 = getelementptr i8, ptr %14, i64 16
  %.val40 = load ptr, ptr %54, align 8, !tbaa !33
  %.not.i44 = icmp eq ptr %.val40, null
  %.pre53 = ptrtoint ptr %.val40 to i64
  br i1 %.not.i44, label %Aig_ObjFaninId1.exit, label %55

55:                                               ; preds = %53
  %56 = and i64 %.pre53, -2
  %57 = inttoptr i64 %56 to ptr
  %58 = getelementptr inbounds nuw i8, ptr %57, i64 36
  %59 = load i32, ptr %58, align 4, !tbaa !29
  %60 = shl i32 %59, 1
  br label %Aig_ObjFaninId1.exit

Aig_ObjFaninId1.exit:                             ; preds = %53, %55
  %61 = phi i32 [ %60, %55 ], [ -2, %53 ]
  %62 = trunc i64 %.pre53 to i32
  %63 = and i32 %62, 1
  %64 = or disjoint i32 %61, %63
  br label %Saig_ObjIsLo.exit.thread.sink.split

Saig_ObjIsLo.exit.thread.sink.split:              ; preds = %30, %Aig_ObjFaninId1.exit
  %.sink = phi i32 [ %64, %Aig_ObjFaninId1.exit ], [ -1, %30 ]
  %65 = getelementptr inbounds nuw i8, ptr %17, i64 4
  store i32 %.sink, ptr %65, align 4, !tbaa !34
  br label %Saig_ObjIsLo.exit.thread

Saig_ObjIsLo.exit.thread:                         ; preds = %Saig_ObjIsLo.exit.thread.sink.split, %29, %12, %Aig_ObjFaninId0.exit, %Saig_ObjIsLo.exit
  %indvars.iv.next = add nuw nsw i64 %indvars.iv, 1
  %exitcond.not = icmp eq i64 %indvars.iv.next, %wide.trip.count
  br i1 %exitcond.not, label %.critedge.loopexit, label %12, !llvm.loop !35

.critedge.loopexit:                               ; preds = %Saig_ObjIsLo.exit.thread
  %.phi.trans.insert = zext nneg i32 %.val32.val to i64
  %.phi.trans.insert49 = getelementptr inbounds nuw %struct.Saig_SimObj_t_, ptr %6, i64 %.phi.trans.insert, i32 2
  %.pre = load i32, ptr %.phi.trans.insert49, align 4
  %66 = and i32 %.pre, -256
  %67 = or disjoint i32 %66, 7
  br label %.critedge

.critedge:                                        ; preds = %..critedge_crit_edge, %.critedge.loopexit
  %.pre-phi = phi i64 [ %.pre50, %..critedge_crit_edge ], [ %.phi.trans.insert, %.critedge.loopexit ]
  %68 = phi i32 [ 7, %..critedge_crit_edge ], [ %67, %.critedge.loopexit ]
  %69 = getelementptr inbounds %struct.Saig_SimObj_t_, ptr %6, i64 %.pre-phi, i32 2
  store i32 %68, ptr %69, align 4
  ret ptr %6
}